target datalayout = "e-m:e-p270:32:32-p271:32:32-p272:64:64-i64:64-i128:128-f80:128-n8:16:32:64-S128"
target triple = "x86_64-pc-linux-gnu"

%struct.ObjectAddress = type { i32, i32, i32 }
%struct.ObjectAddresses = type { ptr, ptr, i32, i32 }

; Function Attrs: nounwind uwtable
define dso_local void @free_object_addresses(ptr noundef %0) #0 {
  %2 = alloca ptr, align 8
  store ptr %0, ptr %2, align 8
  %3 = load ptr, ptr %2, align 8
  %4 = getelementptr inbounds nuw %struct.ObjectAddresses, ptr %3, i32 0, i32 0
  %5 = load ptr, ptr %4, align 8
  call void @pfree(ptr noundef %5)
  %6 = load ptr, ptr %2, align 8
  %7 = getelementptr inbounds nuw %struct.ObjectAddresses, ptr %6, i32 0, i32 1
  %8 = load ptr, ptr %7, align 8
  %9 = icmp ne ptr %8, null
  br i1 %9, label %10, label %14

10:                                               ; preds = %1
  %11 = load ptr, ptr %2, align 8
  %12 = getelementptr inbounds nuw %struct.ObjectAddresses, ptr %11, i32 0, i32 1
  %13 = load ptr, ptr %12, align 8
  call void @pfree(ptr noundef %13)
  br label %14

14:                                               ; preds = %10, %1
  %15 = load ptr, ptr %2, align 8
  call void @pfree(ptr noundef %15)
  ret void
}

; Function Attrs: nounwind uwtable
define dso_local void @AcquireDeletionLock(ptr noundef %0, i32 noundef %1) #0 {
  %3 = alloca ptr, align 8
  %4 = alloca i32, align 4
  store ptr %0, ptr %3, align 8
  store i32 %1, ptr %4, align 4
  %5 = load ptr, ptr %3, align 8
  %6 = getelementptr inbounds nuw %struct.ObjectAddress, ptr %5, i32 0, i32 0
  %7 = load i32, ptr %6, align 4
  %8 = icmp eq i32 %7, 1259
  br i1 %8, label %9, label %22

9:                                                ; preds = %2
  %10 = load i32, ptr %4, align 4
  %11 = and i32 %10, 2
  %12 = icmp ne i32 %11, 0
  br i1 %12, label %13, label %17

13:                                               ; preds = %9
  %14 = load ptr, ptr %3, align 8
  %15 = getelementptr inbounds nuw %struct.ObjectAddress, ptr %14, i32 0, i32 1
  %16 = load i32, ptr %15, align 4
  call void @LockRelationOid(i32 noundef %16, i32 noundef 4)
  br label %21

17:                                               ; preds = %9
  %18 = load ptr, ptr %3, align 8
  %19 = getelementptr inbounds nuw %struct.ObjectAddress, ptr %18, i32 0, i32 1
  %20 = load i32, ptr %19, align 4
  call void @LockRelationOid(i32 noundef %20, i32 noundef 8)
  br label %21

21:                                               ; preds = %17, %13
  br label %42

22:                                               ; preds = %2
  %23 = load ptr, ptr %3, align 8
  %24 = getelementptr inbounds nuw %struct.ObjectAddress, ptr %23, i32 0, i32 0
  %25 = load i32, ptr %24, align 4
  %26 = icmp eq i32 %25, 1261
  br i1 %26, label %27, label %34

27:                                               ; preds = %22
  %28 = load ptr, ptr %3, align 8
  %29 = getelementptr inbounds nuw %struct.ObjectAddress, ptr %28, i32 0, i32 0
  %30 = load i32, ptr %29, align 4
  %31 = load ptr, ptr %3, align 8
  %32 = getelementptr inbounds nuw %struct.ObjectAddress, ptr %31, i32 0, i32 1
  %33 = load i32, ptr %32, align 4
  call void @LockSharedObject(i32 noundef %30, i32 noundef %33, i16 noundef zeroext 0, i32 noundef 8)
  br label %41

34:                                               ; preds = %22
  %35 = load ptr, ptr %3, align 8
  %36 = getelementptr inbounds nuw %struct.ObjectAddress, ptr %35, i32 0, i32 0
  %37 = load i32, ptr %36, align 4
  %38 = load ptr, ptr %3, align 8
  %39 = getelementptr inbounds nuw %struct.ObjectAddress, ptr %38, i32 0, i32 1
  %40 = load i32, ptr %39, align 4
  call void @LockDatabaseObject(i32 noundef %37, i32 noundef %40, i16 noundef zeroext 0, i32 noundef 8)
  br label %41

41:                                               ; preds = %34, %27
  br label %42

42:                                               ; preds = %41, %21
  ret void
}

; Function Attrs: nounwind uwtable
define dso_local ptr @new_object_addresses() #0 {
  %1 = alloca ptr, align 8
  call void @llvm.lifetime.start.p0(i64 8, ptr %1) #8
  %2 = call ptr @palloc(i64 noundef 24)
  store ptr %2, ptr %1, align 8
  %3 = load ptr, ptr %1, align 8
  %4 = getelementptr inbounds nuw %struct.ObjectAddresses, ptr %3, i32 0, i32 2
  store i32 0, ptr %4, align 8
  %5 = load ptr, ptr %1, align 8
  %6 = getelementptr inbounds nuw %struct.ObjectAddresses, ptr %5, i32 0, i32 3
  store i32 32, ptr %6, align 4
  %7 = load ptr, ptr %1, align 8
  %8 = getelementptr inbounds nuw %struct.ObjectAddresses, ptr %7, i32 0, i32 3
  %9 = load i32, ptr %8, align 4
  %10 = sext i32 %9 to i64
  %11 = mul i64 %10, 12
  %12 = call ptr @palloc(i64 noundef %11)
  %13 = load ptr, ptr %1, align 8
  %14 = getelementptr inbounds nuw %struct.ObjectAddresses, ptr %13, i32 0, i32 0
  store ptr %12, ptr %14, align 8
  %15 = load ptr, ptr %1, align 8
  %16 = getelementptr inbounds nuw %struct.ObjectAddresses, ptr %15, i32 0, i32 1
  store ptr null, ptr %16, align 8
  %17 = load ptr, ptr %1, align 8
  call void @llvm.lifetime.end.p0(i64 8, ptr %1) #8
  ret ptr %17
}

; Function Attrs: nounwind uwtable
define dso_local void @performMultipleDeletions(ptr noundef %0, i32 noundef %1, i32 noundef %2) #0 {
  %4 = alloca ptr, align 8
  %5 = alloca i32, align 4
  %6 = alloca i32, align 4
  %7 = alloca ptr, align 8
  %8 = alloca ptr, align 8
  %9 = alloca i32, align 4
  %10 = alloca i32, align 4
  %11 = alloca ptr, align 8
  store ptr %0, ptr %4, align 8
  store i32 %1, ptr %5, align 4
  store i32 %2, ptr %6, align 4
  call void @llvm.lifetime.start.p0(i64 8, ptr %7) #8
  call void @llvm.lifetime.start.p0(i64 8, ptr %8) #8
  call void @llvm.lifetime.start.p0(i64 4, ptr %9) #8
  %12 = load ptr, ptr %4, align 8
  %13 = getelementptr inbounds nuw %struct.ObjectAddresses, ptr %12, i32 0, i32 2
  %14 = load i32, ptr %13, align 8
  %15 = icmp sle i32 %14, 0
  br i1 %15, label %16, label %17

16:                                               ; preds = %3
  store i32 1, ptr %10, align 4
  br label %61

17:                                               ; preds = %3
  %18 = call ptr @table_open(i32 noundef 2608, i32 noundef 3)
  store ptr %18, ptr %7, align 8
  %19 = call ptr @new_object_addresses()
  store ptr %19, ptr %8, align 8
  store i32 0, ptr %9, align 4
  br label %20

20:                                               ; preds = %39, %17
  %21 = load i32, ptr %9, align 4
  %22 = load ptr, ptr %4, align 8
  %23 = getelementptr inbounds nuw %struct.ObjectAddresses, ptr %22, i32 0, i32 2
  %24 = load i32, ptr %23, align 8
  %25 = icmp slt i32 %21, %24
  br i1 %25, label %26, label %42

26:                                               ; preds = %20
  call void @llvm.lifetime.start.p0(i64 8, ptr %11) #8
  %27 = load ptr, ptr %4, align 8
  %28 = getelementptr inbounds nuw %struct.ObjectAddresses, ptr %27, i32 0, i32 0
  %29 = load ptr, ptr %28, align 8
  %30 = load i32, ptr %9, align 4
  %31 = sext i32 %30 to i64
  %32 = getelementptr inbounds %struct.ObjectAddress, ptr %29, i64 %31
  store ptr %32, ptr %11, align 8
  %33 = load ptr, ptr %11, align 8
  %34 = load i32, ptr %6, align 4
  call void @AcquireDeletionLock(ptr noundef %33, i32 noundef %34)
  %35 = load ptr, ptr %11, align 8
  %36 = load i32, ptr %6, align 4
  %37 = load ptr, ptr %8, align 8
  %38 = load ptr, ptr %4, align 8
  call void @findDependentObjects(ptr noundef %35, i32 noundef 1, i32 noundef %36, ptr noundef null, ptr noundef %37, ptr noundef %38, ptr noundef %7)
  call void @llvm.lifetime.end.p0(i64 8, ptr %11) #8
  br label %39

39:                                               ; preds = %26
  %40 = load i32, ptr %9, align 4
  %41 = add i32 %40, 1
  store i32 %41, ptr %9, align 4
  br label %20, !llvm.loop !14

42:                                               ; preds = %20
  %43 = load ptr, ptr %8, align 8
  %44 = load i32, ptr %5, align 4
  %45 = load i32, ptr %6, align 4
  %46 = load ptr, ptr %4, align 8
  %47 = getelementptr inbounds nuw %struct.ObjectAddresses, ptr %46, i32 0, i32 2
  %48 = load i32, ptr %47, align 8
  %49 = icmp eq i32 %48, 1
  br i1 %49, label %50, label %54

50:                                               ; preds = %42
  %51 = load ptr, ptr %4, align 8
  %52 = getelementptr inbounds nuw %struct.ObjectAddresses, ptr %51, i32 0, i32 0
  %53 = load ptr, ptr %52, align 8
  br label %55

54:                                               ; preds = %42
  br label %55

55:                                               ; preds = %54, %50
  %56 = phi ptr [ %53, %50 ], [ null, %54 ]
  call void @reportDependentObjects(ptr noundef %43, i32 noundef %44, i32 noundef %45, ptr noundef %56)
  %57 = load ptr, ptr %8, align 8
  %58 = load i32, ptr %6, align 4
  call void @deleteObjectsInList(ptr noundef %57, ptr noundef %7, i32 noundef %58)
  %59 = load ptr, ptr %8, align 8
  call void @free_object_addresses(ptr noundef %59)
  %60 = load ptr, ptr %7, align 8
  call void @table_close(ptr noundef %60, i32 noundef 3)
  store i32 0, ptr %10, align 4
  br label %61

61:                                               ; preds = %55, %16
  call void @llvm.lifetime.end.p0(i64 4, ptr %9) #8
  call void @llvm.lifetime.end.p0(i64 8, ptr %8) #8
  call void @llvm.lifetime.end.p0(i64 8, ptr %7) #8
  %62 = load i32, ptr %10, align 4
  switch i32 %62, label %64 [
    i32 0, label %63
    i32 1, label %63
  ]

63:                                               ; preds = %61, %61
  ret void

64:                                               ; preds = %61
  unreachable
}