; Function Attrs: nounwind uwtable
define dso_local void @performMultipleDeletions(ptr noundef %0, i32 noundef %1, i32 noundef %2) local_unnamed_addr #0 {
  %4 = alloca ptr, align 8
  call void @llvm.lifetime.start.p0(i64 8, ptr nonnull %4) #9
  %5 = getelementptr inbounds nuw i8, ptr %0, i64 16
  %6 = load i32, ptr %5, align 8
  %7 = icmp slt i32 %6, 1
  br i1 %7, label %48, label %8

8:                                                ; preds = %3
  %9 = tail call ptr @table_open(i32 noundef 2608, i32 noundef 3) #9
  store ptr %9, ptr %4, align 8
  %10 = tail call ptr @palloc(i64 noundef 24) #9
  %11 = getelementptr inbounds nuw i8, ptr %10, i64 16
  store i32 0, ptr %11, align 8
  %12 = getelementptr inbounds nuw i8, ptr %10, i64 20
  store i32 32, ptr %12, align 4
  %13 = tail call ptr @palloc(i64 noundef 384) #9
  store ptr %13, ptr %10, align 8
  %14 = getelementptr inbounds nuw i8, ptr %10, i64 8
  store ptr null, ptr %14, align 8
  %15 = load i32, ptr %5, align 8
  %16 = icmp sgt i32 %15, 0
  br i1 %16, label %.lr.ph, label %._crit_edge.thread

.lr.ph:                                           ; preds = %8
  %17 = and i32 %2, 2
  %.not.i = icmp eq i32 %17, 0
  br i1 %.not.i, label %.lr.ph.split.us, label %.lr.ph.split

.lr.ph.split.us:                                  ; preds = %.lr.ph, %AcquireDeletionLock.exit.us
  %indvars.iv26 = phi i64 [ %indvars.iv.next27, %AcquireDeletionLock.exit.us ], [ 0, %.lr.ph ]
  %18 = load ptr, ptr %0, align 8
  %19 = getelementptr inbounds nuw %struct.ObjectAddress, ptr %18, i64 %indvars.iv26
  %20 = load i32, ptr %19, align 4
  %21 = getelementptr inbounds nuw i8, ptr %19, i64 4
  %22 = load i32, ptr %21, align 4
  switch i32 %20, label %25 [
    i32 1259, label %24
    i32 1261, label %23
  ]

23:                                               ; preds = %.lr.ph.split.us
  call void @LockSharedObject(i32 noundef 1261, i32 noundef %22, i16 noundef zeroext 0, i32 noundef 8) #9
  br label %AcquireDeletionLock.exit.us

24:                                               ; preds = %.lr.ph.split.us
  call void @LockRelationOid(i32 noundef %22, i32 noundef 8) #9
  br label %AcquireDeletionLock.exit.us

25:                                               ; preds = %.lr.ph.split.us
  call void @LockDatabaseObject(i32 noundef %20, i32 noundef %22, i16 noundef zeroext 0, i32 noundef 8) #9
  br label %AcquireDeletionLock.exit.us

AcquireDeletionLock.exit.us:                      ; preds = %25, %24, %23
  call fastcc void @findDependentObjects(ptr noundef nonnull %19, i32 noundef 1, i32 noundef %2, ptr noundef null, ptr noundef nonnull %10, ptr noundef nonnull %0, ptr noundef %4)
  %indvars.iv.next27 = add nuw nsw i64 %indvars.iv26, 1
  %26 = load i32, ptr %5, align 8
  %27 = sext i32 %26 to i64
  %28 = icmp slt i64 %indvars.iv.next27, %27
  br i1 %28, label %.lr.ph.split.us, label %._crit_edge, !llvm.loop !19

.lr.ph.split:                                     ; preds = %.lr.ph, %AcquireDeletionLock.exit
  %indvars.iv = phi i64 [ %indvars.iv.next, %AcquireDeletionLock.exit ], [ 0, %.lr.ph ]
  %29 = load ptr, ptr %0, align 8
  %30 = getelementptr inbounds nuw %struct.ObjectAddress, ptr %29, i64 %indvars.iv
  %31 = load i32, ptr %30, align 4
  %32 = getelementptr inbounds nuw i8, ptr %30, i64 4
  %33 = load i32, ptr %32, align 4
  switch i32 %31, label %36 [
    i32 1259, label %34
    i32 1261, label %35
  ]

34:                                               ; preds = %.lr.ph.split
  call void @LockRelationOid(i32 noundef %33, i32 noundef 4) #9
  br label %AcquireDeletionLock.exit

35:                                               ; preds = %.lr.ph.split
  call void @LockSharedObject(i32 noundef 1261, i32 noundef %33, i16 noundef zeroext 0, i32 noundef 8) #9
  br label %AcquireDeletionLock.exit

36:                                               ; preds = %.lr.ph.split
  call void @LockDatabaseObject(i32 noundef %31, i32 noundef %33, i16 noundef zeroext 0, i32 noundef 8) #9
  br label %AcquireDeletionLock.exit

AcquireDeletionLock.exit:                         ; preds = %34, %35, %36
  call fastcc void @findDependentObjects(ptr noundef nonnull %30, i32 noundef 1, i32 noundef %2, ptr noundef null, ptr noundef nonnull %10, ptr noundef nonnull %0, ptr noundef %4)
  %indvars.iv.next = add nuw nsw i64 %indvars.iv, 1
  %37 = load i32, ptr %5, align 8
  %38 = sext i32 %37 to i64
  %39 = icmp slt i64 %indvars.iv.next, %38
  br i1 %39, label %.lr.ph.split, label %._crit_edge, !llvm.loop !19

._crit_edge:                                      ; preds = %AcquireDeletionLock.exit, %AcquireDeletionLock.exit.us
  %.lcssa = phi i32 [ %26, %AcquireDeletionLock.exit.us ], [ %37, %AcquireDeletionLock.exit ]
  %40 = icmp eq i32 %.lcssa, 1
  br i1 %40, label %41, label %._crit_edge.thread

41:                                               ; preds = %._crit_edge
  %42 = load ptr, ptr %0, align 8
  br label %._crit_edge.thread

._crit_edge.thread:                               ; preds = %8, %._crit_edge, %41
  %43 = phi ptr [ %42, %41 ], [ null, %._crit_edge ], [ null, %8 ]
  call fastcc void @reportDependentObjects(ptr noundef nonnull %10, i32 noundef %1, i32 noundef %2, ptr noundef %43)
  call fastcc void @deleteObjectsInList(ptr noundef nonnull %10, ptr noundef %4, i32 noundef %2)
  %44 = load ptr, ptr %10, align 8
  call void @pfree(ptr noundef %44) #9
  %45 = load ptr, ptr %14, align 8
  %.not.i20 = icmp eq ptr %45, null
  br i1 %.not.i20, label %free_object_addresses.exit, label %46

46:                                               ; preds = %._crit_edge.thread
  call void @pfree(ptr noundef nonnull %45) #9
  br label %free_object_addresses.exit

free_object_addresses.exit:                       ; preds = %._crit_edge.thread, %46
  call void @pfree(ptr noundef nonnull %10) #9
  %47 = load ptr, ptr %4, align 8
  call void @table_close(ptr noundef %47, i32 noundef 3) #9
  br label %48

48:                                               ; preds = %3, %free_object_addresses.exit
  call void @llvm.lifetime.end.p0(i64 8, ptr nonnull %4) #9
  ret void
}